; Function Attrs: nounwind uwtable
define internal void @_PrintExtraToc(ptr noundef %0, ptr noundef readonly captures(none) %1) #0 {
  %3 = getelementptr inbounds nuw i8, ptr %0, i64 16
  %4 = load i32, ptr %3, align 8
  %.not = icmp eq i32 %4, 0
  br i1 %.not, label %11, label %5

5:                                                ; preds = %2
  %6 = getelementptr inbounds nuw i8, ptr %1, i64 152
  %7 = load ptr, ptr %6, align 8
  %8 = getelementptr inbounds nuw i8, ptr %7, i64 8
  %9 = load i64, ptr %8, align 8
  %10 = tail call i32 (ptr, ptr, ...) @ahprintf(ptr noundef nonnull %0, ptr noundef nonnull @.str.7, i64 noundef %9) #7
  br label %11

11:                                               ; preds = %5, %2
  ret void
}